target datalayout = "e-m:e-p270:32:32-p271:32:32-p272:64:64-i64:64-i128:128-f80:128-n8:16:32:64-S128"
target triple = "x86_64-pc-linux-gnu"

%struct.CRYPTO_REF_COUNT = type { i32 }
%struct.crypto_ex_data_st = type { ptr, ptr }
%struct.OSSL_TIME = type { i64 }
%struct.srp_ctx_st = type { ptr, ptr, ptr, ptr, ptr, ptr, ptr, ptr, ptr, ptr, ptr, ptr, ptr, ptr, i32, i64 }
%struct.ssl_ctx_st = type { ptr, ptr, ptr, ptr, ptr, ptr, ptr, i64, ptr, ptr, i32, %struct.OSSL_TIME, ptr, ptr, ptr, %struct.anon.3, %struct.CRYPTO_REF_COUNT, ptr, ptr, ptr, ptr, ptr, ptr, ptr, ptr, ptr, %struct.crypto_ex_data_st, ptr, ptr, ptr, ptr, ptr, ptr, ptr, i64, i32, i32, i32, i64, ptr, ptr, i32, ptr, ptr, i32, i64, [32 x i8], ptr, ptr, ptr, i32, ptr, ptr, ptr, i64, i64, i64, i64, ptr, ptr, ptr, ptr, ptr, %struct.anon.4, ptr, ptr, ptr, ptr, %struct.srp_ctx_st, %struct.dane_ctx_st, ptr, ptr, ptr, ptr, i32, i32, ptr, ptr, i64, i64, ptr, ptr, ptr, i64, ptr, ptr, i32, ptr, ptr, ptr, [14 x i32], [24 x ptr], [14 x ptr], [14 x i64], i64, ptr, ptr, ptr, i64, i64, ptr, i64, i64, i32, i32, i32, i32, ptr, i64, ptr, i64, i64, ptr, ptr }
%struct.anon.3 = type { i32, i32, i32, i32, i32, i32, i32, i32, i32, i32, i32 }
%struct.anon.4 = type { ptr, ptr, [16 x i8], ptr, ptr, ptr, ptr, ptr, i32, i8, i64, ptr, i64, ptr, i64, ptr, i64, ptr, ptr, i64, ptr, ptr, ptr, i64, ptr, ptr, ptr, ptr, [32 x i8] }
%struct.dane_ctx_st = type { ptr, ptr, i8, i64 }

@.str = private unnamed_addr constant [25 x i8] c"../openssl/ssl/ssl_rsa.c\00", align 1
@__func__.SSL_CTX_use_PrivateKey = private unnamed_addr constant [23 x i8] c"SSL_CTX_use_PrivateKey\00", align 1
@__func__.SSL_CTX_use_PrivateKey_file = private unnamed_addr constant [28 x i8] c"SSL_CTX_use_PrivateKey_file\00", align 1

; Function Attrs: nounwind uwtable
define i32 @SSL_CTX_use_PrivateKey(ptr noundef %0, ptr noundef %1) #0 {
  %3 = alloca i32, align 4
  %4 = alloca ptr, align 8
  %5 = alloca ptr, align 8
  store ptr %0, ptr %4, align 8, !tbaa !76
  store ptr %1, ptr %5, align 8, !tbaa !77
  %6 = load ptr, ptr %5, align 8, !tbaa !77
  %7 = icmp eq ptr %6, null
  br i1 %7, label %8, label %9

8:                                                ; preds = %2
  call void @ERR_new()
  call void @ERR_set_debug(ptr noundef @.str, i32 noundef 383, ptr noundef @__func__.SSL_CTX_use_PrivateKey)
  call void (i32, i32, ptr, ...) @ERR_set_error(i32 noundef 20, i32 noundef 786690, ptr noundef null)
  store i32 0, ptr %3, align 4
  br label %16

9:                                                ; preds = %2
  %10 = load ptr, ptr %4, align 8, !tbaa !76
  %11 = getelementptr inbounds nuw %struct.ssl_ctx_st, ptr %10, i32 0, i32 39
  %12 = load ptr, ptr %11, align 8, !tbaa !107
  %13 = load ptr, ptr %5, align 8, !tbaa !77
  %14 = load ptr, ptr %4, align 8, !tbaa !76
  %15 = call i32 @ssl_set_pkey(ptr noundef %12, ptr noundef %13, ptr noundef %14)
  store i32 %15, ptr %3, align 4
  br label %16

16:                                               ; preds = %9, %8
  %17 = load i32, ptr %3, align 4
  ret i32 %17
}

; Function Attrs: nounwind uwtable
define i32 @SSL_CTX_use_PrivateKey_file(ptr noundef %0, ptr noundef %1, i32 noundef %2) #0 {
  %4 = alloca ptr, align 8
  %5 = alloca ptr, align 8
  %6 = alloca i32, align 4
  %7 = alloca i32, align 4
  %8 = alloca i32, align 4
  %9 = alloca ptr, align 8
  %10 = alloca ptr, align 8
  store ptr %0, ptr %4, align 8, !tbaa !76
  store ptr %1, ptr %5, align 8, !tbaa !87
  store i32 %2, ptr %6, align 4, !tbaa !21
  call void @llvm.lifetime.start.p0(i64 4, ptr %7) #6
  call void @llvm.lifetime.start.p0(i64 4, ptr %8) #6
  store i32 0, ptr %8, align 4, !tbaa !21
  call void @llvm.lifetime.start.p0(i64 8, ptr %9) #6
  store ptr null, ptr %9, align 8, !tbaa !88
  call void @llvm.lifetime.start.p0(i64 8, ptr %10) #6
  store ptr null, ptr %10, align 8, !tbaa !77
  %11 = load ptr, ptr %5, align 8, !tbaa !87
  %12 = icmp eq ptr %11, null
  br i1 %12, label %13, label %14

13:                                               ; preds = %3
  call void @ERR_new()
  call void @ERR_set_debug(ptr noundef @.str, i32 noundef 396, ptr noundef @__func__.SSL_CTX_use_PrivateKey_file)
  call void (i32, i32, ptr, ...) @ERR_set_error(i32 noundef 20, i32 noundef 786690, ptr noundef null)
  br label %69

14:                                               ; preds = %3
  %15 = call ptr @BIO_s_file()
  %16 = call ptr @BIO_new(ptr noundef %15)
  store ptr %16, ptr %9, align 8, !tbaa !88
  %17 = load ptr, ptr %9, align 8, !tbaa !88
  %18 = icmp eq ptr %17, null
  br i1 %18, label %19, label %20

19:                                               ; preds = %14
  call void @ERR_new()
  call void @ERR_set_debug(ptr noundef @.str, i32 noundef 402, ptr noundef @__func__.SSL_CTX_use_PrivateKey_file)
  call void (i32, i32, ptr, ...) @ERR_set_error(i32 noundef 20, i32 noundef 524295, ptr noundef null)
  br label %69

20:                                               ; preds = %14
  %21 = load ptr, ptr %9, align 8, !tbaa !88
  %22 = load ptr, ptr %5, align 8, !tbaa !87
  %23 = call i64 @BIO_ctrl(ptr noundef %21, i32 noundef 108, i64 noundef 3, ptr noundef %22)
  %24 = trunc i64 %23 to i32
  %25 = icmp sle i32 %24, 0
  br i1 %25, label %26, label %27

26:                                               ; preds = %20
  call void @ERR_new()
  call void @ERR_set_debug(ptr noundef @.str, i32 noundef 407, ptr noundef @__func__.SSL_CTX_use_PrivateKey_file)
  call void (i32, i32, ptr, ...) @ERR_set_error(i32 noundef 20, i32 noundef 524290, ptr noundef null)
  br label %69

27:                                               ; preds = %20
  %28 = load i32, ptr %6, align 4, !tbaa !21
  %29 = icmp eq i32 %28, 1
  br i1 %29, label %30, label %45

30:                                               ; preds = %27
  store i32 524297, ptr %7, align 4, !tbaa !21
  %31 = load ptr, ptr %9, align 8, !tbaa !88
  %32 = load ptr, ptr %4, align 8, !tbaa !76
  %33 = getelementptr inbounds nuw %struct.ssl_ctx_st, ptr %32, i32 0, i32 19
  %34 = load ptr, ptr %33, align 8, !tbaa !108
  %35 = load ptr, ptr %4, align 8, !tbaa !76
  %36 = getelementptr inbounds nuw %struct.ssl_ctx_st, ptr %35, i32 0, i32 20
  %37 = load ptr, ptr %36, align 8, !tbaa !109
  %38 = load ptr, ptr %4, align 8, !tbaa !76
  %39 = getelementptr inbounds nuw %struct.ssl_ctx_st, ptr %38, i32 0, i32 0
  %40 = load ptr, ptr %39, align 8, !tbaa !90
  %41 = load ptr, ptr %4, align 8, !tbaa !76
  %42 = getelementptr inbounds nuw %struct.ssl_ctx_st, ptr %41, i32 0, i32 89
  %43 = load ptr, ptr %42, align 8, !tbaa !104
  %44 = call ptr @PEM_read_bio_PrivateKey_ex(ptr noundef %31, ptr noundef null, ptr noundef %34, ptr noundef %37, ptr noundef %40, ptr noundef %43)
  store ptr %44, ptr %10, align 8, !tbaa !77
  br label %59

45:                                               ; preds = %27
  %46 = load i32, ptr %6, align 4, !tbaa !21
  %47 = icmp eq i32 %46, 2
  br i1 %47, label %48, label %57

48:                                               ; preds = %45
  store i32 524301, ptr %7, align 4, !tbaa !21
  %49 = load ptr, ptr %9, align 8, !tbaa !88
  %50 = load ptr, ptr %4, align 8, !tbaa !76
  %51 = getelementptr inbounds nuw %struct.ssl_ctx_st, ptr %50, i32 0, i32 0
  %52 = load ptr, ptr %51, align 8, !tbaa !90
  %53 = load ptr, ptr %4, align 8, !tbaa !76
  %54 = getelementptr inbounds nuw %struct.ssl_ctx_st, ptr %53, i32 0, i32 89
  %55 = load ptr, ptr %54, align 8, !tbaa !104
  %56 = call ptr @d2i_PrivateKey_ex_bio(ptr noundef %49, ptr noundef null, ptr noundef %52, ptr noundef %55)
  store ptr %56, ptr %10, align 8, !tbaa !77
  br label %58

57:                                               ; preds = %45
  call void @ERR_new()
  call void @ERR_set_debug(ptr noundef @.str, i32 noundef 420, ptr noundef @__func__.SSL_CTX_use_PrivateKey_file)
  call void (i32, i32, ptr, ...) @ERR_set_error(i32 noundef 20, i32 noundef 124, ptr noundef null)
  br label %69

58:                                               ; preds = %48
  br label %59

59:                                               ; preds = %58, %30
  %60 = load ptr, ptr %10, align 8, !tbaa !77
  %61 = icmp eq ptr %60, null
  br i1 %61, label %62, label %64

62:                                               ; preds = %59
  call void @ERR_new()
  call void @ERR_set_debug(ptr noundef @.str, i32 noundef 424, ptr noundef @__func__.SSL_CTX_use_PrivateKey_file)
  %63 = load i32, ptr %7, align 4, !tbaa !21
  call void (i32, i32, ptr, ...) @ERR_set_error(i32 noundef 20, i32 noundef %63, ptr noundef null)
  br label %69

64:                                               ; preds = %59
  %65 = load ptr, ptr %4, align 8, !tbaa !76
  %66 = load ptr, ptr %10, align 8, !tbaa !77
  %67 = call i32 @SSL_CTX_use_PrivateKey(ptr noundef %65, ptr noundef %66)
  store i32 %67, ptr %8, align 4, !tbaa !21
  %68 = load ptr, ptr %10, align 8, !tbaa !77
  call void @EVP_PKEY_free(ptr noundef %68)
  br label %69

69:                                               ; preds = %64, %62, %57, %26, %19, %13
  %70 = load ptr, ptr %9, align 8, !tbaa !88
  %71 = call i32 @BIO_free(ptr noundef %70)
  %72 = load i32, ptr %8, align 4, !tbaa !21
  call void @llvm.lifetime.end.p0(i64 8, ptr %10) #6
  call void @llvm.lifetime.end.p0(i64 8, ptr %9) #6
  call void @llvm.lifetime.end.p0(i64 4, ptr %8) #6
  call void @llvm.lifetime.end.p0(i64 4, ptr %7) #6
  ret i32 %72
}