; Function Attrs: nounwind uwtable
define range(i32 0, 2) i32 @SSL_CTX_use_PrivateKey_file(ptr noundef %0, ptr noundef %1, i32 noundef %2) local_unnamed_addr #0 {
  %4 = icmp eq ptr %1, null
  br i1 %4, label %5, label %6

5:                                                ; preds = %3
  tail call void @ERR_new() #6
  tail call void @ERR_set_debug(ptr noundef nonnull @.str, i32 noundef 396, ptr noundef nonnull @__func__.SSL_CTX_use_PrivateKey_file) #6
  tail call void (i32, i32, ptr, ...) @ERR_set_error(i32 noundef 20, i32 noundef 786690, ptr noundef null) #6
  br label %38

6:                                                ; preds = %3
  %7 = tail call ptr @BIO_s_file() #6
  %8 = tail call ptr @BIO_new(ptr noundef %7) #6
  %9 = icmp eq ptr %8, null
  br i1 %9, label %10, label %11

10:                                               ; preds = %6
  tail call void @ERR_new() #6
  tail call void @ERR_set_debug(ptr noundef nonnull @.str, i32 noundef 402, ptr noundef nonnull @__func__.SSL_CTX_use_PrivateKey_file) #6
  tail call void (i32, i32, ptr, ...) @ERR_set_error(i32 noundef 20, i32 noundef 524295, ptr noundef null) #6
  br label %38

11:                                               ; preds = %6
  %12 = tail call i64 @BIO_ctrl(ptr noundef nonnull %8, i32 noundef 108, i64 noundef 3, ptr noundef nonnull %1) #6
  %13 = trunc i64 %12 to i32
  %14 = icmp slt i32 %13, 1
  br i1 %14, label %15, label %16

15:                                               ; preds = %11
  tail call void @ERR_new() #6
  tail call void @ERR_set_debug(ptr noundef nonnull @.str, i32 noundef 407, ptr noundef nonnull @__func__.SSL_CTX_use_PrivateKey_file) #6
  tail call void (i32, i32, ptr, ...) @ERR_set_error(i32 noundef 20, i32 noundef 524290, ptr noundef null) #6
  br label %38

16:                                               ; preds = %11
  switch i32 %2, label %31 [
    i32 1, label %17
    i32 2, label %26
  ]

17:                                               ; preds = %16
  %18 = getelementptr inbounds nuw i8, ptr %0, i64 184
  %19 = load ptr, ptr %18, align 8, !tbaa !101
  %20 = getelementptr inbounds nuw i8, ptr %0, i64 192
  %21 = load ptr, ptr %20, align 8, !tbaa !102
  %22 = load ptr, ptr %0, align 8, !tbaa !82
  %23 = getelementptr inbounds nuw i8, ptr %0, i64 1152
  %24 = load ptr, ptr %23, align 8, !tbaa !96
  %25 = tail call ptr @PEM_read_bio_PrivateKey_ex(ptr noundef nonnull %8, ptr noundef null, ptr noundef %19, ptr noundef %21, ptr noundef %22, ptr noundef %24) #6
  br label %32

26:                                               ; preds = %16
  %27 = load ptr, ptr %0, align 8, !tbaa !82
  %28 = getelementptr inbounds nuw i8, ptr %0, i64 1152
  %29 = load ptr, ptr %28, align 8, !tbaa !96
  %30 = tail call ptr @d2i_PrivateKey_ex_bio(ptr noundef nonnull %8, ptr noundef null, ptr noundef %27, ptr noundef %29) #6
  br label %32

31:                                               ; preds = %16
  tail call void @ERR_new() #6
  tail call void @ERR_set_debug(ptr noundef nonnull @.str, i32 noundef 420, ptr noundef nonnull @__func__.SSL_CTX_use_PrivateKey_file) #6
  tail call void (i32, i32, ptr, ...) @ERR_set_error(i32 noundef 20, i32 noundef 124, ptr noundef null) #6
  br label %38

32:                                               ; preds = %26, %17
  %.022 = phi i32 [ 524297, %17 ], [ 524301, %26 ]
  %.0 = phi ptr [ %25, %17 ], [ %30, %26 ]
  %33 = icmp eq ptr %.0, null
  br i1 %33, label %34, label %SSL_CTX_use_PrivateKey.exit

34:                                               ; preds = %32
  tail call void @ERR_new() #6
  tail call void @ERR_set_debug(ptr noundef nonnull @.str, i32 noundef 424, ptr noundef nonnull @__func__.SSL_CTX_use_PrivateKey_file) #6
  tail call void (i32, i32, ptr, ...) @ERR_set_error(i32 noundef 20, i32 noundef %.022, ptr noundef null) #6
  br label %38

SSL_CTX_use_PrivateKey.exit:                      ; preds = %32
  %35 = getelementptr inbounds nuw i8, ptr %0, i64 344
  %36 = load ptr, ptr %35, align 8, !tbaa !100
  %37 = tail call fastcc i32 @ssl_set_pkey(ptr noundef %36, ptr noundef nonnull %.0, ptr noundef nonnull %0)
  tail call void @EVP_PKEY_free(ptr noundef nonnull %.0) #6
  br label %38

38:                                               ; preds = %SSL_CTX_use_PrivateKey.exit, %34, %31, %15, %10, %5
  %.021 = phi i32 [ 0, %5 ], [ 0, %10 ], [ 0, %15 ], [ 0, %34 ], [ %37, %SSL_CTX_use_PrivateKey.exit ], [ 0, %31 ]
  %.020 = phi ptr [ null, %5 ], [ null, %10 ], [ %8, %15 ], [ %8, %34 ], [ %8, %SSL_CTX_use_PrivateKey.exit ], [ %8, %31 ]
  %39 = tail call i32 @BIO_free(ptr noundef %.020) #6
  ret i32 %.021
}